; ModuleID = '21/218.c'
source_filename = "21/218.c"
target datalayout = "e-m:e-p270:32:32-p271:32:32-p272:64:64-i64:64-f80:128-n8:16:32:64-S128"
target triple = "x86_64-pc-linux-gnu"

@.str = private unnamed_addr constant [3 x i8] c"%d\00", align 1
@.str.1 = private unnamed_addr constant [6 x i8] c"%d,%d\00", align 1

; Function Attrs: noinline nounwind uwtable
define dso_local void @main() #0 {
  %1 = alloca i32, align 4
  %2 = alloca i32, align 4
  %3 = alloca [300 x i32], align 16
  %4 = alloca i32, align 4
  %5 = alloca [300 x float], align 16
  %6 = alloca float, align 4
  %7 = alloca float, align 4
  %8 = alloca float, align 4
  %9 = alloca i32, align 4
  %10 = alloca i32, align 4
  store i32 0, i32* %2, align 4
  %11 = call i32 (i8*, ...) @__isoc99_scanf(i8* getelementptr inbounds ([3 x i8], [3 x i8]* @.str, i64 0, i64 0), i32* %1)
  store i32 0, i32* %4, align 4
  br label %12

12:                                               ; preds = %27, %0
  %13 = load i32, i32* %4, align 4
  %14 = load i32, i32* %1, align 4
  %15 = icmp slt i32 %13, %14
  br i1 %15, label %16, label %30

16:                                               ; preds = %12
  %17 = load i32, i32* %4, align 4
  %18 = sext i32 %17 to i64
  %19 = getelementptr inbounds [300 x i32], [300 x i32]* %3, i64 0, i64 %18
  %20 = call i32 (i8*, ...) @__isoc99_scanf(i8* getelementptr inbounds ([3 x i8], [3 x i8]* @.str, i64 0, i64 0), i32* %19)
  %21 = load i32, i32* %2, align 4
  %22 = load i32, i32* %4, align 4
  %23 = sext i32 %22 to i64
  %24 = getelementptr inbounds [300 x i32], [300 x i32]* %3, i64 0, i64 %23
  %25 = load i32, i32* %24, align 4
  %26 = add nsw i32 %21, %25
  store i32 %26, i32* %2, align 4
  br label %27

27:                                               ; preds = %16
  %28 = load i32, i32* %4, align 4
  %29 = add nsw i32 %28, 1
  store i32 %29, i32* %4, align 4
  br label %12

30:                                               ; preds = %12
  %31 = load i32, i32* %2, align 4
  %32 = sitofp i32 %31 to float
  store float %32, float* %7, align 4
  %33 = load i32, i32* %1, align 4
  %34 = sitofp i32 %33 to float
  store float %34, float* %8, align 4
  %35 = load float, float* %7, align 4
  %36 = load float, float* %8, align 4
  %37 = fdiv float %35, %36
  store float %37, float* %6, align 4
  store i32 0, i32* %4, align 4
  br label %38

38:                                               ; preds = %73, %30
  %39 = load i32, i32* %4, align 4
  %40 = load i32, i32* %1, align 4
  %41 = icmp slt i32 %39, %40
  br i1 %41, label %42, label %76

42:                                               ; preds = %38
  %43 = load i32, i32* %4, align 4
  %44 = sext i32 %43 to i64
  %45 = getelementptr inbounds [300 x i32], [300 x i32]* %3, i64 0, i64 %44
  %46 = load i32, i32* %45, align 4
  %47 = sitofp i32 %46 to float
  %48 = load float, float* %6, align 4
  %49 = fcmp ogt float %47, %48
  br i1 %49, label %50, label %61

50:                                               ; preds = %42
  %51 = load i32, i32* %4, align 4
  %52 = sext i32 %51 to i64
  %53 = getelementptr inbounds [300 x i32], [300 x i32]* %3, i64 0, i64 %52
  %54 = load i32, i32* %53, align 4
  %55 = sitofp i32 %54 to float
  %56 = load float, float* %6, align 4
  %57 = fsub float %55, %56
  %58 = load i32, i32* %4, align 4
  %59 = sext i32 %58 to i64
  %60 = getelementptr inbounds [300 x float], [300 x float]* %5, i64 0, i64 %59
  store float %57, float* %60, align 4
  br label %72

61:                                               ; preds = %42
  %62 = load float, float* %6, align 4
  %63 = load i32, i32* %4, align 4
  %64 = sext i32 %63 to i64
  %65 = getelementptr inbounds [300 x i32], [300 x i32]* %3, i64 0, i64 %64
  %66 = load i32, i32* %65, align 4
  %67 = sitofp i32 %66 to float
  %68 = fsub float %62, %67
  %69 = load i32, i32* %4, align 4
  %70 = sext i32 %69 to i64
  %71 = getelementptr inbounds [300 x float], [300 x float]* %5, i64 0, i64 %70
  store float %68, float* %71, align 4
  br label %72

72:                                               ; preds = %61, %50
  br label %73

73:                                               ; preds = %72
  %74 = load i32, i32* %4, align 4
  %75 = add nsw i32 %74, 1
  store i32 %75, i32* %4, align 4
  br label %38

76:                                               ; preds = %38
  store i32 0, i32* %9, align 4
  store i32 0, i32* %4, align 4
  br label %77

77:                                               ; preds = %94, %76
  %78 = load i32, i32* %4, align 4
  %79 = load i32, i32* %1, align 4
  %80 = icmp slt i32 %78, %79
  br i1 %80, label %81, label %97

81:                                               ; preds = %77
  %82 = load i32, i32* %4, align 4
  %83 = sext i32 %82 to i64
  %84 = getelementptr inbounds [300 x float], [300 x float]* %5, i64 0, i64 %83
  %85 = load float, float* %84, align 4
  %86 = load i32, i32* %9, align 4
  %87 = sext i32 %86 to i64
  %88 = getelementptr inbounds [300 x float], [300 x float]* %5, i64 0, i64 %87
  %89 = load float, float* %88, align 4
  %90 = fcmp ogt float %85, %89
  br i1 %90, label %91, label %93

91:                                               ; preds = %81
  %92 = load i32, i32* %4, align 4
  store i32 %92, i32* %9, align 4
  br label %93

93:                                               ; preds = %91, %81
  br label %94

94:                                               ; preds = %93
  %95 = load i32, i32* %4, align 4
  %96 = add nsw i32 %95, 1
  store i32 %96, i32* %4, align 4
  br label %77

97:                                               ; preds = %77
  store i32 -1, i32* %10, align 4
  store i32 0, i32* %4, align 4
  br label %98

98:                                               ; preds = %119, %97
  %99 = load i32, i32* %4, align 4
  %100 = load i32, i32* %1, align 4
  %101 = icmp slt i32 %99, %100
  br i1 %101, label %102, label %122

102:                                              ; preds = %98
  %103 = load i32, i32* %4, align 4
  %104 = sext i32 %103 to i64
  %105 = getelementptr inbounds [300 x float], [300 x float]* %5, i64 0, i64 %104
  %106 = load float, float* %105, align 4
  %107 = load i32, i32* %9, align 4
  %108 = sext i32 %107 to i64
  %109 = getelementptr inbounds [300 x float], [300 x float]* %5, i64 0, i64 %108
  %110 = load float, float* %109, align 4
  %111 = fcmp oeq float %106, %110
  br i1 %111, label %112, label %118

112:                                              ; preds = %102
  %113 = load i32, i32* %4, align 4
  %114 = load i32, i32* %9, align 4
  %115 = icmp ne i32 %113, %114
  br i1 %115, label %116, label %118

116:                                              ; preds = %112
  %117 = load i32, i32* %4, align 4
  store i32 %117, i32* %10, align 4
  br label %118

118:                                              ; preds = %116, %112, %102
  br label %119

119:                                              ; preds = %118
  %120 = load i32, i32* %4, align 4
  %121 = add nsw i32 %120, 1
  store i32 %121, i32* %4, align 4
  br label %98

122:                                              ; preds = %98
  %123 = load i32, i32* %10, align 4
  %124 = icmp eq i32 %123, -1
  br i1 %124, label %125, label %131

125:                                              ; preds = %122
  %126 = load i32, i32* %9, align 4
  %127 = sext i32 %126 to i64
  %128 = getelementptr inbounds [300 x i32], [300 x i32]* %3, i64 0, i64 %127
  %129 = load i32, i32* %128, align 4
  %130 = call i32 (i8*, ...) @printf(i8* getelementptr inbounds ([3 x i8], [3 x i8]* @.str, i64 0, i64 0), i32 %129)
  br label %162

131:                                              ; preds = %122
  %132 = load i32, i32* %9, align 4
  %133 = sext i32 %132 to i64
  %134 = getelementptr inbounds [300 x i32], [300 x i32]* %3, i64 0, i64 %133
  %135 = load i32, i32* %134, align 4
  %136 = load i32, i32* %10, align 4
  %137 = sext i32 %136 to i64
  %138 = getelementptr inbounds [300 x i32], [300 x i32]* %3, i64 0, i64 %137
  %139 = load i32, i32* %138, align 4
  %140 = icmp sgt i32 %135, %139
  br i1 %140, label %141, label %151

141:                                              ; preds = %131
  %142 = load i32, i32* %10, align 4
  %143 = sext i32 %142 to i64
  %144 = getelementptr inbounds [300 x i32], [300 x i32]* %3, i64 0, i64 %143
  %145 = load i32, i32* %144, align 4
  %146 = load i32, i32* %9, align 4
  %147 = sext i32 %146 to i64
  %148 = getelementptr inbounds [300 x i32], [300 x i32]* %3, i64 0, i64 %147
  %149 = load i32, i32* %148, align 4
  %150 = call i32 (i8*, ...) @printf(i8* getelementptr inbounds ([6 x i8], [6 x i8]* @.str.1, i64 0, i64 0), i32 %145, i32 %149)
  br label %161

151:                                              ; preds = %131
  %152 = load i32, i32* %9, align 4
  %153 = sext i32 %152 to i64
  %154 = getelementptr inbounds [300 x i32], [300 x i32]* %3, i64 0, i64 %153
  %155 = load i32, i32* %154, align 4
  %156 = load i32, i32* %10, align 4
  %157 = sext i32 %156 to i64
  %158 = getelementptr inbounds [300 x i32], [300 x i32]* %3, i64 0, i64 %157
  %159 = load i32, i32* %158, align 4
  %160 = call i32 (i8*, ...) @printf(i8* getelementptr inbounds ([6 x i8], [6 x i8]* @.str.1, i64 0, i64 0), i32 %155, i32 %159)
  br label %161

161:                                              ; preds = %151, %141
  br label %162

162:                                              ; preds = %161, %125
  ret void
}

declare dso_local i32 @__isoc99_scanf(i8*, ...) #1

declare dso_local i32 @printf(i8*, ...) #1


!llvm.module.flags = !{!0}
!llvm.ident = !{!1}

!0 = !{i32 1, !"wchar_size", i32 4}
!1 = !{!"clang version 10.0.0-4ubuntu1 "}
